(dp1
I33
(I00
I0
tp2
sI34
(I00
I1
tp3
sI35
(I00
I2
tp4
sI36
(I00
I3
tp5
sI37
(I00
I4
tp6
sI38
(I00
I5
tp7
sI39
(I01
I22
tp8
sI40
(I00
I7
tp9
sI41
(I00
I8
tp10
sI42
(I00
I22
tp11
sI43
(I01
I10
tp12
sI44
(I01
I13
tp13
sI45
(I01
I34
tp14
sI46
(I01
I14
tp15
sI47
(I00
I6
tp16
sI48
(I01
I9
tp17
sI49
(I01
I0
tp18
sI50
(I01
I1
tp19
sI51
(I01
I2
tp20
sI52
(I01
I3
tp21
sI53
(I01
I4
tp22
sI54
(I01
I5
tp23
sI55
(I01
I6
tp24
sI56
(I01
I7
tp25
sI57
(I01
I8
tp26
sI58
(I00
I14
tp27
sI59
(I00
I13
tp28
sI60
(I01
I35
tp29
sI61
(I00
I9
tp30
sI62
(I00
I35
tp31
sI63
(I00
I10
tp32
sI65
(I00
I24
tp33
sI66
(I00
I42
tp34
sI67
(I00
I19
tp35
sI68
(I00
I29
tp36
sI69
(I00
I26
tp37
sI70
(I00
I17
tp38
sI71
(I00
I18
tp39
sI72
(I00
I30
tp40
sI73
(I00
I28
tp41
sI74
(I00
I39
tp42
sI75
(I00
I40
tp43
sI76
(I00
I21
tp44
sI77
(I00
I43
tp45
sI78
(I00
I32
tp46
sI79
(I00
I25
tp47
sI80
(I00
I15
tp48
sI81
(I00
I38
tp49
sI82
(I00
I20
tp50
sI83
(I00
I33
tp51
sI84
(I00
I31
tp52
sI85
(I00
I27
tp53
sI86
(I00
I45
tp54
sI87
(I00
I44
tp55
sI88
(I00
I41
tp56
sI89
(I00
I16
tp57
sI90
(I00
I46
tp58
sI92
(I01
I11
tp59
sI94
(I00
I23
tp60
sI95
(I00
I34
tp61
sI96
(I00
I11
tp62
sI97
(I01
I24
tp63
sI98
(I01
I42
tp64
sI99
(I01
I19
tp65
sI100
(I01
I29
tp66
sI101
(I01
I26
tp67
sI102
(I01
I17
tp68
sI103
(I01
I18
tp69
sI104
(I01
I30
tp70
sI105
(I01
I28
tp71
sI106
(I01
I39
tp72
sI107
(I01
I40
tp73
sI108
(I01
I21
tp74
sI109
(I01
I43
tp75
sI110
(I01
I32
tp76
sI111
(I01
I25
tp77
sI112
(I01
I15
tp78
sI113
(I01
I38
tp79
sI114
(I01
I20
tp80
sI115
(I01
I33
tp81
sI116
(I01
I31
tp82
sI117
(I01
I27
tp83
sI118
(I01
I45
tp84
sI119
(I01
I44
tp85
sI120
(I01
I41
tp86
sI121
(I01
I16
tp87
sI122
(I01
I46
tp88
sI126
(I01
I23
tp89
sI195
(dp90
I133
(I00
I12
tp91
sI165
(I01
I12
tp92
sI134
(I00
I37
tp93
sI152
(I00
I36
tp94
sI184
(I01
I36
tp95
sI166
(I01
I37
tp96
ss.
